; Function Attrs: mustprogress nounwind uwtable
define dso_local void @_ZNK4llvm11ms_demangle18FunctionSymbolNode6outputERNS_16itanium_demangle12OutputBufferENS0_11OutputFlagsE(ptr nocapture noundef nonnull readonly align 8 dereferenceable(32) %0, ptr noundef nonnull align 8 dereferenceable(36) %1, i32 noundef %2) unnamed_addr #0 align 2 {
  %4 = getelementptr inbounds nuw i8, ptr %0, i64 24
  %5 = load ptr, ptr %4, align 8
  %6 = load ptr, ptr %5, align 8
  %7 = getelementptr inbounds i8, ptr %6, i64 24
  %8 = load ptr, ptr %7, align 8
  tail call void %8(ptr noundef nonnull align 8 dereferenceable(57) %5, ptr noundef nonnull align 8 dereferenceable(36) %1, i32 noundef %2) #15
  %9 = getelementptr inbounds nuw i8, ptr %1, i64 8
  %10 = load i64, ptr %9, align 8
  %11 = icmp eq i64 %10, 0
  br i1 %11, label %_ZL22outputSpaceIfNecessaryRN4llvm16itanium_demangle12OutputBufferE.exit, label %12

12:                                               ; preds = %3
  %13 = load ptr, ptr %1, align 8
  %14 = getelementptr i8, ptr %13, i64 %10
  %15 = getelementptr i8, ptr %14, i64 -1
  %16 = load i8, ptr %15, align 1
  %17 = sext i8 %16 to i32
  %18 = tail call i32 @isalnum(i32 noundef %17) #18
  %19 = icmp ne i32 %18, 0
  %20 = icmp eq i8 %16, 62
  %or.cond.i = or i1 %20, %19
  br i1 %or.cond.i, label %21, label %_ZL22outputSpaceIfNecessaryRN4llvm16itanium_demangle12OutputBufferE.exit

21:                                               ; preds = %12
  %22 = add i64 %10, 1
  %23 = getelementptr inbounds nuw i8, ptr %1, i64 16
  %24 = load i64, ptr %23, align 8
  %25 = icmp ugt i64 %22, %24
  br i1 %25, label %26, label %_ZN4llvm16itanium_demangle12OutputBuffer4growEm.exit.i.i.i

26:                                               ; preds = %21
  %27 = add i64 %10, 993
  %28 = shl i64 %24, 1
  %spec.select.i.i.i.i = tail call i64 @llvm.umax.i64(i64 %28, i64 %27)
  store i64 %spec.select.i.i.i.i, ptr %23, align 8
  %29 = tail call ptr @realloc(ptr noundef nonnull %13, i64 noundef %spec.select.i.i.i.i) #16
  store ptr %29, ptr %1, align 8
  %30 = icmp eq ptr %29, null
  br i1 %30, label %31, label %._ZN4llvm16itanium_demangle12OutputBuffer4growEm.exit_crit_edge.i.i.i

._ZN4llvm16itanium_demangle12OutputBuffer4growEm.exit_crit_edge.i.i.i: ; preds = %26
  %.pre4.i.i.i = load i64, ptr %9, align 8
  br label %_ZN4llvm16itanium_demangle12OutputBuffer4growEm.exit.i.i.i

31:                                               ; preds = %26
  tail call void @abort() #17
  unreachable

_ZN4llvm16itanium_demangle12OutputBuffer4growEm.exit.i.i.i: ; preds = %._ZN4llvm16itanium_demangle12OutputBuffer4growEm.exit_crit_edge.i.i.i, %21
  %32 = phi i64 [ %10, %21 ], [ %.pre4.i.i.i, %._ZN4llvm16itanium_demangle12OutputBuffer4growEm.exit_crit_edge.i.i.i ]
  %33 = phi ptr [ %13, %21 ], [ %29, %._ZN4llvm16itanium_demangle12OutputBuffer4growEm.exit_crit_edge.i.i.i ]
  %34 = getelementptr inbounds i8, ptr %33, i64 %32
  store i8 32, ptr %34, align 1
  %35 = load i64, ptr %9, align 8
  %36 = add i64 %35, 1
  store i64 %36, ptr %9, align 8
  br label %_ZL22outputSpaceIfNecessaryRN4llvm16itanium_demangle12OutputBufferE.exit

_ZL22outputSpaceIfNecessaryRN4llvm16itanium_demangle12OutputBufferE.exit: ; preds = %3, %12, %_ZN4llvm16itanium_demangle12OutputBuffer4growEm.exit.i.i.i
  %37 = getelementptr inbounds nuw i8, ptr %0, i64 16
  %38 = load ptr, ptr %37, align 8
  %39 = load ptr, ptr %38, align 8
  %40 = getelementptr inbounds i8, ptr %39, i64 16
  %41 = load ptr, ptr %40, align 8
  tail call void %41(ptr noundef nonnull align 8 dereferenceable(24) %38, ptr noundef nonnull align 8 dereferenceable(36) %1, i32 noundef %2) #15
  %42 = load ptr, ptr %4, align 8
  %43 = load ptr, ptr %42, align 8
  %44 = getelementptr inbounds i8, ptr %43, i64 32
  %45 = load ptr, ptr %44, align 8
  tail call void %45(ptr noundef nonnull align 8 dereferenceable(57) %42, ptr noundef nonnull align 8 dereferenceable(36) %1, i32 noundef %2) #15
  ret void
}